target datalayout = "e-m:e-p270:32:32-p271:32:32-p272:64:64-i64:64-i128:128-f80:128-n8:16:32:64-S128"
target triple = "x86_64-pc-linux-gnu"

%struct.Acec_Box_t_ = type { ptr, ptr, ptr, ptr, ptr, ptr }
%struct.Vec_Wec_t_ = type { i32, i32, ptr }
%struct.Vec_Int_t_ = type { i32, i32, ptr }

@.str.15 = private unnamed_addr constant [14 x i8] c" %4d : %2d  {\00", align 1
@.str.16 = private unnamed_addr constant [14 x i8] c" %s%d=(%d,%d)\00", align 1
@.str.17 = private unnamed_addr constant [2 x i8] c"*\00", align 1
@.str.18 = private unnamed_addr constant [1 x i8] zeroinitializer, align 1
@.str.19 = private unnamed_addr constant [4 x i8] c" }\0A\00", align 1
@.str.20 = private unnamed_addr constant [9 x i8] c"Adders:\0A\00", align 1
@.str.21 = private unnamed_addr constant [9 x i8] c"Inputs:\0A\00", align 1
@.str.22 = private unnamed_addr constant [10 x i8] c"Outputs:\0A\00", align 1
@.str.30 = private unnamed_addr constant [6 x i8] c" %c%d\00", align 1

; Function Attrs: nounwind uwtable
define internal i32 @Abc_Lit2Var(i32 noundef %0) #0 {
  %2 = alloca i32, align 4
  store i32 %0, ptr %2, align 4
  %3 = load i32, ptr %2, align 4
  %4 = ashr i32 %3, 1
  ret i32 %4
}

; Function Attrs: nounwind uwtable
define internal i32 @Abc_LitIsCompl(i32 noundef %0) #0 {
  %2 = alloca i32, align 4
  store i32 %0, ptr %2, align 4
  %3 = load i32, ptr %2, align 4
  %4 = and i32 %3, 1
  ret i32 %4
}

; Function Attrs: nounwind uwtable
define internal i32 @Vec_IntEntry(ptr noundef %0, i32 noundef %1) #0 {
  %3 = alloca ptr, align 8
  %4 = alloca i32, align 4
  store ptr %0, ptr %3, align 8
  store i32 %1, ptr %4, align 4
  %5 = load ptr, ptr %3, align 8
  %6 = getelementptr inbounds %struct.Vec_Int_t_, ptr %5, i32 0, i32 2
  %7 = load ptr, ptr %6, align 8
  %8 = load i32, ptr %4, align 4
  %9 = sext i32 %8 to i64
  %10 = getelementptr inbounds i32, ptr %7, i64 %9
  %11 = load i32, ptr %10, align 4
  ret i32 %11
}

; Function Attrs: nounwind uwtable
define internal i32 @Vec_IntSize(ptr noundef %0) #0 {
  %2 = alloca ptr, align 8
  store ptr %0, ptr %2, align 8
  %3 = load ptr, ptr %2, align 8
  %4 = getelementptr inbounds %struct.Vec_Int_t_, ptr %3, i32 0, i32 1
  %5 = load i32, ptr %4, align 4
  ret i32 %5
}

; Function Attrs: nounwind uwtable
define internal ptr @Vec_WecEntry(ptr noundef %0, i32 noundef %1) #0 {
  %3 = alloca ptr, align 8
  %4 = alloca i32, align 4
  store ptr %0, ptr %3, align 8
  store i32 %1, ptr %4, align 4
  %5 = load ptr, ptr %3, align 8
  %6 = getelementptr inbounds %struct.Vec_Wec_t_, ptr %5, i32 0, i32 2
  %7 = load ptr, ptr %6, align 8
  %8 = load i32, ptr %4, align 4
  %9 = sext i32 %8 to i64
  %10 = getelementptr inbounds %struct.Vec_Int_t_, ptr %7, i64 %9
  ret ptr %10
}

; Function Attrs: nounwind uwtable
define internal i32 @Vec_WecSize(ptr noundef %0) #0 {
  %2 = alloca ptr, align 8
  store ptr %0, ptr %2, align 8
  %3 = load ptr, ptr %2, align 8
  %4 = getelementptr inbounds %struct.Vec_Wec_t_, ptr %3, i32 0, i32 1
  %5 = load i32, ptr %4, align 4
  ret i32 %5
}

; Function Attrs: nounwind uwtable
define internal void @Vec_WecPrintLits(ptr noundef %0) #0 {
  %2 = alloca ptr, align 8
  %3 = alloca ptr, align 8
  %4 = alloca i32, align 4
  %5 = alloca i32, align 4
  %6 = alloca i32, align 4
  store ptr %0, ptr %2, align 8
  store i32 0, ptr %4, align 4
  br label %7

7:                                                ; preds = %47, %1
  %8 = load i32, ptr %4, align 4
  %9 = load ptr, ptr %2, align 8
  %10 = call i32 @Vec_WecSize(ptr noundef %9)
  %11 = icmp slt i32 %8, %10
  br i1 %11, label %12, label %16

12:                                               ; preds = %7
  %13 = load ptr, ptr %2, align 8
  %14 = load i32, ptr %4, align 4
  %15 = call ptr @Vec_WecEntry(ptr noundef %13, i32 noundef %14)
  store ptr %15, ptr %3, align 8
  br label %16

16:                                               ; preds = %12, %7
  %17 = phi i1 [ false, %7 ], [ true, %12 ]
  br i1 %17, label %18, label %50

18:                                               ; preds = %16
  %19 = load i32, ptr %4, align 4
  %20 = load ptr, ptr %3, align 8
  %21 = call i32 @Vec_IntSize(ptr noundef %20)
  %22 = call i32 (ptr, ...) @printf(ptr noundef @.str.15, i32 noundef %19, i32 noundef %21)
  store i32 0, ptr %5, align 4
  br label %23

23:                                               ; preds = %42, %18
  %24 = load i32, ptr %5, align 4
  %25 = load ptr, ptr %3, align 8
  %26 = call i32 @Vec_IntSize(ptr noundef %25)
  %27 = icmp slt i32 %24, %26
  br i1 %27, label %28, label %32

28:                                               ; preds = %23
  %29 = load ptr, ptr %3, align 8
  %30 = load i32, ptr %5, align 4
  %31 = call i32 @Vec_IntEntry(ptr noundef %29, i32 noundef %30)
  store i32 %31, ptr %6, align 4
  br label %32

32:                                               ; preds = %28, %23
  %33 = phi i1 [ false, %23 ], [ true, %28 ]
  br i1 %33, label %34, label %45

34:                                               ; preds = %32
  %35 = load i32, ptr %6, align 4
  %36 = call i32 @Abc_LitIsCompl(i32 noundef %35)
  %37 = icmp ne i32 %36, 0
  %38 = select i1 %37, i32 45, i32 43
  %39 = load i32, ptr %6, align 4
  %40 = call i32 @Abc_Lit2Var(i32 noundef %39)
  %41 = call i32 (ptr, ...) @printf(ptr noundef @.str.30, i32 noundef %38, i32 noundef %40)
  br label %42

42:                                               ; preds = %34
  %43 = load i32, ptr %5, align 4
  %44 = add nsw i32 %43, 1
  store i32 %44, ptr %5, align 4
  br label %23, !llvm.loop !46

45:                                               ; preds = %32
  %46 = call i32 (ptr, ...) @printf(ptr noundef @.str.19)
  br label %47

47:                                               ; preds = %45
  %48 = load i32, ptr %4, align 4
  %49 = add nsw i32 %48, 1
  store i32 %49, ptr %4, align 4
  br label %7, !llvm.loop !47

50:                                               ; preds = %16
  ret void
}

; Function Attrs: nounwind uwtable
define void @Acec_PrintAdders(ptr noundef %0, ptr noundef %1) #0 {
  %3 = alloca ptr, align 8
  %4 = alloca ptr, align 8
  %5 = alloca ptr, align 8
  %6 = alloca i32, align 4
  %7 = alloca i32, align 4
  %8 = alloca i32, align 4
  store ptr %0, ptr %3, align 8
  store ptr %1, ptr %4, align 8
  store i32 0, ptr %6, align 4
  br label %9

9:                                                ; preds = %61, %2
  %10 = load i32, ptr %6, align 4
  %11 = load ptr, ptr %3, align 8
  %12 = call i32 @Vec_WecSize(ptr noundef %11)
  %13 = icmp slt i32 %10, %12
  br i1 %13, label %14, label %18

14:                                               ; preds = %9
  %15 = load ptr, ptr %3, align 8
  %16 = load i32, ptr %6, align 4
  %17 = call ptr @Vec_WecEntry(ptr noundef %15, i32 noundef %16)
  store ptr %17, ptr %5, align 8
  br label %18

18:                                               ; preds = %14, %9
  %19 = phi i1 [ false, %9 ], [ true, %14 ]
  br i1 %19, label %20, label %64

20:                                               ; preds = %18
  %21 = load i32, ptr %6, align 4
  %22 = load ptr, ptr %5, align 8
  %23 = call i32 @Vec_IntSize(ptr noundef %22)
  %24 = call i32 (ptr, ...) @printf(ptr noundef @.str.15, i32 noundef %21, i32 noundef %23)
  store i32 0, ptr %7, align 4
  br label %25

25:                                               ; preds = %56, %20
  %26 = load i32, ptr %7, align 4
  %27 = load ptr, ptr %5, align 8
  %28 = call i32 @Vec_IntSize(ptr noundef %27)
  %29 = icmp slt i32 %26, %28
  br i1 %29, label %30, label %34

30:                                               ; preds = %25
  %31 = load ptr, ptr %5, align 8
  %32 = load i32, ptr %7, align 4
  %33 = call i32 @Vec_IntEntry(ptr noundef %31, i32 noundef %32)
  store i32 %33, ptr %8, align 4
  br label %34

34:                                               ; preds = %30, %25
  %35 = phi i1 [ false, %25 ], [ true, %30 ]
  br i1 %35, label %36, label %59

36:                                               ; preds = %34
  %37 = load ptr, ptr %4, align 8
  %38 = load i32, ptr %8, align 4
  %39 = mul nsw i32 6, %38
  %40 = add nsw i32 %39, 2
  %41 = call i32 @Vec_IntEntry(ptr noundef %37, i32 noundef %40)
  %42 = icmp eq i32 %41, 0
  %43 = select i1 %42, ptr @.str.17, ptr @.str.18
  %44 = load i32, ptr %8, align 4
  %45 = load ptr, ptr %4, align 8
  %46 = load i32, ptr %8, align 4
  %47 = mul nsw i32 6, %46
  %48 = add nsw i32 %47, 3
  %49 = call i32 @Vec_IntEntry(ptr noundef %45, i32 noundef %48)
  %50 = load ptr, ptr %4, align 8
  %51 = load i32, ptr %8, align 4
  %52 = mul nsw i32 6, %51
  %53 = add nsw i32 %52, 4
  %54 = call i32 @Vec_IntEntry(ptr noundef %50, i32 noundef %53)
  %55 = call i32 (ptr, ...) @printf(ptr noundef @.str.16, ptr noundef %43, i32 noundef %44, i32 noundef %49, i32 noundef %54)
  br label %56

56:                                               ; preds = %36
  %57 = load i32, ptr %7, align 4
  %58 = add nsw i32 %57, 1
  store i32 %58, ptr %7, align 4
  br label %25, !llvm.loop !44

59:                                               ; preds = %34
  %60 = call i32 (ptr, ...) @printf(ptr noundef @.str.19)
  br label %61

61:                                               ; preds = %59
  %62 = load i32, ptr %6, align 4
  %63 = add nsw i32 %62, 1
  store i32 %63, ptr %6, align 4
  br label %9, !llvm.loop !45

64:                                               ; preds = %18
  ret void
}

; Function Attrs: nounwind uwtable
define void @Acec_TreePrintBox(ptr noundef %0, ptr noundef %1) #0 {
  %3 = alloca ptr, align 8
  %4 = alloca ptr, align 8
  store ptr %0, ptr %3, align 8
  store ptr %1, ptr %4, align 8
  %5 = call i32 (ptr, ...) @printf(ptr noundef @.str.20)
  %6 = load ptr, ptr %3, align 8
  %7 = getelementptr inbounds %struct.Acec_Box_t_, ptr %6, i32 0, i32 1
  %8 = load ptr, ptr %7, align 8
  %9 = load ptr, ptr %4, align 8
  call void @Acec_PrintAdders(ptr noundef %8, ptr noundef %9)
  %10 = call i32 (ptr, ...) @printf(ptr noundef @.str.21)
  %11 = load ptr, ptr %3, align 8
  %12 = getelementptr inbounds %struct.Acec_Box_t_, ptr %11, i32 0, i32 2
  %13 = load ptr, ptr %12, align 8
  call void @Vec_WecPrintLits(ptr noundef %13)
  %14 = call i32 (ptr, ...) @printf(ptr noundef @.str.22)
  %15 = load ptr, ptr %3, align 8
  %16 = getelementptr inbounds %struct.Acec_Box_t_, ptr %15, i32 0, i32 3
  %17 = load ptr, ptr %16, align 8
  call void @Vec_WecPrintLits(ptr noundef %17)
  ret void
}