; Function Attrs: nofree nounwind uwtable
define void @Acec_TreePrintBox(ptr noundef readonly captures(none) %0, ptr noundef readonly captures(none) %1) local_unnamed_addr #2 {
  %puts = tail call i32 @puts(ptr nonnull dereferenceable(1) @str.3)
  %3 = getelementptr inbounds nuw i8, ptr %0, i64 8
  %4 = load ptr, ptr %3, align 8
  %5 = getelementptr i8, ptr %4, i64 4
  %.val30.i = load i32, ptr %5, align 4
  %6 = icmp sgt i32 %.val30.i, 0
  br i1 %6, label %.lr.ph32.i, label %Acec_PrintAdders.exit

.lr.ph32.i:                                       ; preds = %2
  %7 = getelementptr i8, ptr %4, i64 8
  %8 = getelementptr i8, ptr %1, i64 8
  br label %9

9:                                                ; preds = %.critedge2.i, %.lr.ph32.i
  %indvars.iv34.i = phi i64 [ 0, %.lr.ph32.i ], [ %indvars.iv.next35.i, %.critedge2.i ]
  %.val21.i = load ptr, ptr %7, align 8
  %10 = getelementptr inbounds nuw %struct.Vec_Int_t_, ptr %.val21.i, i64 %indvars.iv34.i
  %11 = getelementptr i8, ptr %10, i64 4
  %.val23.i = load i32, ptr %11, align 4
  %12 = trunc nuw nsw i64 %indvars.iv34.i to i32
  %13 = tail call i32 (ptr, ...) @printf(ptr noundef nonnull dereferenceable(1) @.str.15, i32 noundef %12, i32 noundef %.val23.i)
  %.val2228.i = load i32, ptr %11, align 4
  %14 = icmp sgt i32 %.val2228.i, 0
  br i1 %14, label %.lr.ph.i, label %.critedge2.i

.lr.ph.i:                                         ; preds = %9
  %15 = getelementptr i8, ptr %10, i64 8
  br label %16

16:                                               ; preds = %16, %.lr.ph.i
  %indvars.iv.i = phi i64 [ 0, %.lr.ph.i ], [ %indvars.iv.next.i, %16 ]
  %.val27.i = load ptr, ptr %15, align 8
  %17 = getelementptr inbounds nuw i32, ptr %.val27.i, i64 %indvars.iv.i
  %18 = load i32, ptr %17, align 4
  %19 = mul nsw i32 %18, 6
  %.val26.i = load ptr, ptr %8, align 8
  %20 = sext i32 %19 to i64
  %21 = getelementptr i32, ptr %.val26.i, i64 %20
  %22 = getelementptr i8, ptr %21, i64 8
  %23 = load i32, ptr %22, align 4
  %24 = icmp eq i32 %23, 0
  %25 = select i1 %24, ptr @.str.17, ptr @.str.18
  %26 = getelementptr i8, ptr %21, i64 12
  %27 = load i32, ptr %26, align 4
  %28 = getelementptr i8, ptr %21, i64 16
  %29 = load i32, ptr %28, align 4
  %30 = tail call i32 (ptr, ...) @printf(ptr noundef nonnull dereferenceable(1) @.str.16, ptr noundef nonnull %25, i32 noundef %18, i32 noundef %27, i32 noundef %29)
  %indvars.iv.next.i = add nuw nsw i64 %indvars.iv.i, 1
  %.val22.i = load i32, ptr %11, align 4
  %31 = sext i32 %.val22.i to i64
  %32 = icmp slt i64 %indvars.iv.next.i, %31
  br i1 %32, label %16, label %.critedge2.i, !llvm.loop !46

.critedge2.i:                                     ; preds = %16, %9
  %puts.i = tail call i32 @puts(ptr nonnull dereferenceable(1) @str.6)
  %indvars.iv.next35.i = add nuw nsw i64 %indvars.iv34.i, 1
  %.val.i = load i32, ptr %5, align 4
  %33 = sext i32 %.val.i to i64
  %34 = icmp slt i64 %indvars.iv.next35.i, %33
  br i1 %34, label %9, label %Acec_PrintAdders.exit, !llvm.loop !47

Acec_PrintAdders.exit:                            ; preds = %.critedge2.i, %2
  %puts4 = tail call i32 @puts(ptr nonnull dereferenceable(1) @str.4)
  %35 = getelementptr inbounds nuw i8, ptr %0, i64 16
  %36 = load ptr, ptr %35, align 8
  %37 = getelementptr i8, ptr %36, i64 4
  %.val22.i6 = load i32, ptr %37, align 4
  %38 = icmp sgt i32 %.val22.i6, 0
  br i1 %38, label %.lr.ph24.i, label %Vec_WecPrintLits.exit

.lr.ph24.i:                                       ; preds = %Acec_PrintAdders.exit
  %39 = getelementptr i8, ptr %36, i64 8
  br label %40

40:                                               ; preds = %.critedge2.i7, %.lr.ph24.i
  %indvars.iv26.i = phi i64 [ 0, %.lr.ph24.i ], [ %indvars.iv.next27.i, %.critedge2.i7 ]
  %.val16.i = load ptr, ptr %39, align 8
  %41 = getelementptr inbounds nuw %struct.Vec_Int_t_, ptr %.val16.i, i64 %indvars.iv26.i
  %42 = getelementptr i8, ptr %41, i64 4
  %.val18.i = load i32, ptr %42, align 4
  %43 = trunc nuw nsw i64 %indvars.iv26.i to i32
  %44 = tail call i32 (ptr, ...) @printf(ptr noundef nonnull dereferenceable(1) @.str.15, i32 noundef %43, i32 noundef %.val18.i)
  %.val1720.i = load i32, ptr %42, align 4
  %45 = icmp sgt i32 %.val1720.i, 0
  br i1 %45, label %.lr.ph.i10, label %.critedge2.i7

.lr.ph.i10:                                       ; preds = %40
  %46 = getelementptr i8, ptr %41, i64 8
  br label %47

47:                                               ; preds = %47, %.lr.ph.i10
  %indvars.iv.i11 = phi i64 [ 0, %.lr.ph.i10 ], [ %indvars.iv.next.i12, %47 ]
  %.val19.i = load ptr, ptr %46, align 8
  %48 = getelementptr inbounds nuw i32, ptr %.val19.i, i64 %indvars.iv.i11
  %49 = load i32, ptr %48, align 4
  %50 = and i32 %49, 1
  %.not.i = icmp eq i32 %50, 0
  %51 = select i1 %.not.i, i32 43, i32 45
  %52 = ashr i32 %49, 1
  %53 = tail call i32 (ptr, ...) @printf(ptr noundef nonnull dereferenceable(1) @.str.30, i32 noundef %51, i32 noundef %52)
  %indvars.iv.next.i12 = add nuw nsw i64 %indvars.iv.i11, 1
  %.val17.i = load i32, ptr %42, align 4
  %54 = sext i32 %.val17.i to i64
  %55 = icmp slt i64 %indvars.iv.next.i12, %54
  br i1 %55, label %47, label %.critedge2.i7, !llvm.loop !48

.critedge2.i7:                                    ; preds = %47, %40
  %puts.i8 = tail call i32 @puts(ptr nonnull dereferenceable(1) @str.6)
  %indvars.iv.next27.i = add nuw nsw i64 %indvars.iv26.i, 1
  %.val.i9 = load i32, ptr %37, align 4
  %56 = sext i32 %.val.i9 to i64
  %57 = icmp slt i64 %indvars.iv.next27.i, %56
  br i1 %57, label %40, label %Vec_WecPrintLits.exit, !llvm.loop !49

Vec_WecPrintLits.exit:                            ; preds = %.critedge2.i7, %Acec_PrintAdders.exit
  %puts5 = tail call i32 @puts(ptr nonnull dereferenceable(1) @str.5)
  %58 = getelementptr inbounds nuw i8, ptr %0, i64 24
  %59 = load ptr, ptr %58, align 8
  %60 = getelementptr i8, ptr %59, i64 4
  %.val22.i13 = load i32, ptr %60, align 4
  %61 = icmp sgt i32 %.val22.i13, 0
  br i1 %61, label %.lr.ph24.i14, label %Vec_WecPrintLits.exit29

.lr.ph24.i14:                                     ; preds = %Vec_WecPrintLits.exit
  %62 = getelementptr i8, ptr %59, i64 8
  br label %63

63:                                               ; preds = %.critedge2.i19, %.lr.ph24.i14
  %indvars.iv26.i15 = phi i64 [ 0, %.lr.ph24.i14 ], [ %indvars.iv.next27.i21, %.critedge2.i19 ]
  %.val16.i16 = load ptr, ptr %62, align 8
  %64 = getelementptr inbounds nuw %struct.Vec_Int_t_, ptr %.val16.i16, i64 %indvars.iv26.i15
  %65 = getelementptr i8, ptr %64, i64 4
  %.val18.i17 = load i32, ptr %65, align 4
  %66 = trunc nuw nsw i64 %indvars.iv26.i15 to i32
  %67 = tail call i32 (ptr, ...) @printf(ptr noundef nonnull dereferenceable(1) @.str.15, i32 noundef %66, i32 noundef %.val18.i17)
  %.val1720.i18 = load i32, ptr %65, align 4
  %68 = icmp sgt i32 %.val1720.i18, 0
  br i1 %68, label %.lr.ph.i23, label %.critedge2.i19

.lr.ph.i23:                                       ; preds = %63
  %69 = getelementptr i8, ptr %64, i64 8
  br label %70

70:                                               ; preds = %70, %.lr.ph.i23
  %indvars.iv.i24 = phi i64 [ 0, %.lr.ph.i23 ], [ %indvars.iv.next.i27, %70 ]
  %.val19.i25 = load ptr, ptr %69, align 8
  %71 = getelementptr inbounds nuw i32, ptr %.val19.i25, i64 %indvars.iv.i24
  %72 = load i32, ptr %71, align 4
  %73 = and i32 %72, 1
  %.not.i26 = icmp eq i32 %73, 0
  %74 = select i1 %.not.i26, i32 43, i32 45
  %75 = ashr i32 %72, 1
  %76 = tail call i32 (ptr, ...) @printf(ptr noundef nonnull dereferenceable(1) @.str.30, i32 noundef %74, i32 noundef %75)
  %indvars.iv.next.i27 = add nuw nsw i64 %indvars.iv.i24, 1
  %.val17.i28 = load i32, ptr %65, align 4
  %77 = sext i32 %.val17.i28 to i64
  %78 = icmp slt i64 %indvars.iv.next.i27, %77
  br i1 %78, label %70, label %.critedge2.i19, !llvm.loop !48

.critedge2.i19:                                   ; preds = %70, %63
  %puts.i20 = tail call i32 @puts(ptr nonnull dereferenceable(1) @str.6)
  %indvars.iv.next27.i21 = add nuw nsw i64 %indvars.iv26.i15, 1
  %.val.i22 = load i32, ptr %60, align 4
  %79 = sext i32 %.val.i22 to i64
  %80 = icmp slt i64 %indvars.iv.next27.i21, %79
  br i1 %80, label %63, label %Vec_WecPrintLits.exit29, !llvm.loop !49

Vec_WecPrintLits.exit29:                          ; preds = %.critedge2.i19, %Vec_WecPrintLits.exit
  ret void
}